; Function Attrs: nounwind uwtable
define range(i32 -1, 1) i32 @H5FO_dest(ptr noundef readonly captures(none) %0) local_unnamed_addr #0 {
  %2 = getelementptr inbounds nuw i8, ptr %0, i64 16
  %3 = load ptr, ptr %2, align 8, !tbaa !3
  %4 = getelementptr inbounds nuw i8, ptr %3, i64 1464
  %5 = load ptr, ptr %4, align 8, !tbaa !15
  %6 = tail call i64 @H5SL_count(ptr noundef %5) #2
  %.not = icmp eq i64 %6, 0
  br i1 %.not, label %11, label %7

7:                                                ; preds = %1
  %8 = load i64, ptr @H5E_CACHE_g, align 8, !tbaa !36
  %9 = load i64, ptr @H5E_CANTRELEASE_g, align 8, !tbaa !36
  %10 = tail call i32 (ptr, ptr, i32, i64, i64, ptr, ...) @H5E_printf_stack(ptr noundef nonnull @.str, ptr noundef nonnull @__func__.H5FO_dest, i32 noundef 353, i64 noundef %8, i64 noundef %9, ptr noundef nonnull @.str.6) #2
  br label %24

11:                                               ; preds = %1
  %12 = load ptr, ptr %2, align 8, !tbaa !3
  %13 = getelementptr inbounds nuw i8, ptr %12, i64 1464
  %14 = load ptr, ptr %13, align 8, !tbaa !15
  %15 = tail call i32 @H5SL_close(ptr noundef %14) #2
  %16 = icmp slt i32 %15, 0
  br i1 %16, label %17, label %21

17:                                               ; preds = %11
  %18 = load i64, ptr @H5E_CACHE_g, align 8, !tbaa !36
  %19 = load i64, ptr @H5E_CANTCLOSEOBJ_g, align 8, !tbaa !36
  %20 = tail call i32 (ptr, ptr, i32, i64, i64, ptr, ...) @H5E_printf_stack(ptr noundef nonnull @.str, ptr noundef nonnull @__func__.H5FO_dest, i32 noundef 357, i64 noundef %18, i64 noundef %19, ptr noundef nonnull @.str.7) #2
  br label %24

21:                                               ; preds = %11
  %22 = load ptr, ptr %2, align 8, !tbaa !3
  %23 = getelementptr inbounds nuw i8, ptr %22, i64 1464
  store ptr null, ptr %23, align 8, !tbaa !15
  br label %24

24:                                               ; preds = %21, %17, %7
  %.0 = phi i32 [ -1, %7 ], [ -1, %17 ], [ 0, %21 ]
  ret i32 %.0
}